target datalayout = "e-m:e-p270:32:32-p271:32:32-p272:64:64-i64:64-i128:128-f80:128-n8:16:32:64-S128"
target triple = "x86_64-pc-linux-gnu"

%struct._oid_alternative = type { ptr, i32, [2 x i32] }

@.str.192 = private unnamed_addr constant [68 x i8] c"asn1_expect_rsa: Failed to find valid OID alternative for RSA algo\0A\00", align 1

; Function Attrs: nounwind uwtable
define internal i32 @asn1_expect_rsa(ptr noundef %0, ptr noundef %1, ptr noundef %2, ptr noundef %3) #0 {
  %5 = alloca i32, align 4
  %6 = alloca ptr, align 8
  %7 = alloca ptr, align 8
  %8 = alloca ptr, align 8
  %9 = alloca ptr, align 8
  %10 = alloca ptr, align 8
  %11 = alloca i32, align 4
  store ptr %0, ptr %6, align 8, !tbaa !3
  store ptr %1, ptr %7, align 8, !tbaa !62
  store ptr %2, ptr %8, align 8, !tbaa !63
  store ptr %3, ptr %9, align 8, !tbaa !62
  call void @llvm.lifetime.start.p0(i64 8, ptr %10) #8
  %12 = load ptr, ptr %6, align 8, !tbaa !3
  %13 = load ptr, ptr %7, align 8, !tbaa !62
  %14 = load ptr, ptr %8, align 8, !tbaa !63
  %15 = call ptr @asn1_expect_algo_multi(ptr noundef %12, ptr noundef %13, ptr noundef %14, ptr noundef @asn1_expect_rsa.alts, i32 noundef 8)
  store ptr %15, ptr %10, align 8, !tbaa !85
  %16 = load ptr, ptr %10, align 8, !tbaa !85
  %17 = icmp eq ptr null, %16
  br i1 %17, label %18, label %19

18:                                               ; preds = %4
  call void (ptr, ...) @cli_dbgmsg(ptr noundef @.str.192)
  store i32 1, ptr %5, align 4
  store i32 1, ptr %11, align 4
  br label %25

19:                                               ; preds = %4
  %20 = load ptr, ptr %10, align 8, !tbaa !85
  %21 = getelementptr inbounds nuw %struct._oid_alternative, ptr %20, i32 0, i32 2
  %22 = getelementptr inbounds [2 x i32], ptr %21, i64 0, i64 0
  %23 = load i32, ptr %22, align 4, !tbaa !20
  %24 = load ptr, ptr %9, align 8, !tbaa !62
  store i32 %23, ptr %24, align 4, !tbaa !20
  store i32 0, ptr %5, align 4
  store i32 1, ptr %11, align 4
  br label %25

25:                                               ; preds = %19, %18
  call void @llvm.lifetime.end.p0(i64 8, ptr %10) #8
  %26 = load i32, ptr %5, align 4
  ret i32 %26
}