; Function Attrs: nounwind uwtable
define internal fastcc range(i32 0, 2) i32 @asn1_expect_rsa(ptr noundef %0, ptr noundef nonnull captures(none) %1, ptr noundef nonnull captures(none) %2, ptr noundef nonnull writeonly captures(none) %3) unnamed_addr #0 {
  %5 = tail call fastcc ptr @asn1_expect_algo_multi(ptr noundef %0, ptr noundef %1, ptr noundef %2, ptr noundef nonnull @asn1_expect_rsa.alts, i32 noundef 8)
  %6 = icmp eq ptr %5, null
  br i1 %6, label %7, label %8

7:                                                ; preds = %4
  tail call void (ptr, ...) @cli_dbgmsg(ptr noundef nonnull @.str.192) #11
  br label %11

8:                                                ; preds = %4
  %9 = getelementptr inbounds nuw i8, ptr %5, i64 12
  %10 = load i32, ptr %9, align 4, !tbaa !17
  store i32 %10, ptr %3, align 4, !tbaa !17
  br label %11

11:                                               ; preds = %8, %7
  %.0 = phi i32 [ 1, %7 ], [ 0, %8 ]
  ret i32 %.0
}